; Function Attrs: mustprogress nounwind uwtable
define hidden i32 @_ZNK22XPhysicalMemoryBacking26fallocate_fill_hole_compatEmm(ptr nocapture noundef nonnull readonly align 8 dereferenceable(41) %0, i64 noundef %1, i64 noundef %2) local_unnamed_addr #0 align 2 {
  %4 = alloca %class.XErrno, align 4
  %5 = alloca i8, align 1
  %6 = alloca %class.XErrno, align 4
  %7 = load i32, ptr @_ZN11XLargePages6_stateE, align 4
  switch i32 %7, label %20 [
    i32 1, label %8
    i32 2, label %18
  ]

8:                                                ; preds = %3
  call void @llvm.lifetime.start.p0(i64 4, ptr nonnull %6)
  %9 = load i32, ptr %0, align 8
  %10 = tail call ptr @mmap64(ptr noundef null, i64 noundef %2, i32 noundef 3, i32 noundef 1, i32 noundef %9, i64 noundef %1) #12
  %11 = icmp eq ptr %10, inttoptr (i64 -1 to ptr)
  br i1 %11, label %.sink.split.i, label %12

12:                                               ; preds = %8
  %13 = tail call i32 @munmap(ptr noundef %10, i64 noundef %2) #12
  %14 = icmp eq i32 %13, -1
  br i1 %14, label %.sink.split.i, label %_ZNK22XPhysicalMemoryBacking31fallocate_compat_mmap_hugetlbfsEmmb.exit

.sink.split.i:                                    ; preds = %12, %8
  %15 = tail call ptr @__errno_location() #13
  %16 = load i32, ptr %15, align 4
  br label %_ZNK22XPhysicalMemoryBacking31fallocate_compat_mmap_hugetlbfsEmmb.exit

_ZNK22XPhysicalMemoryBacking31fallocate_compat_mmap_hugetlbfsEmmb.exit: ; preds = %12, %.sink.split.i
  %.sink.i = phi i32 [ 0, %12 ], [ %16, %.sink.split.i ]
  call void @_ZN6XErrnoC1Ei(ptr noundef nonnull align 4 dereferenceable(4) %6, i32 noundef %.sink.i) #12
  %17 = load i32, ptr %6, align 4
  call void @llvm.lifetime.end.p0(i64 4, ptr nonnull %6)
  br label %36

18:                                               ; preds = %3
  %19 = tail call i32 @_ZNK22XPhysicalMemoryBacking27fallocate_compat_mmap_tmpfsEmm(ptr noundef nonnull align 8 dereferenceable(41) %0, i64 noundef %1, i64 noundef %2)
  br label %36

20:                                               ; preds = %3
  call void @llvm.lifetime.start.p0(i64 4, ptr nonnull %4)
  call void @llvm.lifetime.start.p0(i64 1, ptr nonnull %5)
  store i8 0, ptr %5, align 1
  %21 = add i64 %2, %1
  %22 = icmp ugt i64 %21, %1
  br i1 %22, label %.lr.ph.i, label %_ZNK22XPhysicalMemoryBacking23fallocate_compat_pwriteEmm.exit

.lr.ph.i:                                         ; preds = %20
  %23 = getelementptr inbounds i8, ptr %0, i64 24
  br label %24

24:                                               ; preds = %31, %.lr.ph.i
  %.06.i = phi i64 [ %1, %.lr.ph.i ], [ %33, %31 ]
  %25 = load i32, ptr %0, align 8
  %26 = call i64 @pwrite64(i32 noundef %25, ptr noundef nonnull %5, i64 noundef 1, i64 noundef %.06.i) #12
  %27 = icmp eq i64 %26, -1
  br i1 %27, label %28, label %31

28:                                               ; preds = %24
  %29 = tail call ptr @__errno_location() #13
  %30 = load i32, ptr %29, align 4
  br label %_ZNK22XPhysicalMemoryBacking23fallocate_compat_pwriteEmm.exit

31:                                               ; preds = %24
  %32 = load i64, ptr %23, align 8
  %33 = add i64 %32, %.06.i
  %34 = icmp ult i64 %33, %21
  br i1 %34, label %24, label %_ZNK22XPhysicalMemoryBacking23fallocate_compat_pwriteEmm.exit, !llvm.loop !9

_ZNK22XPhysicalMemoryBacking23fallocate_compat_pwriteEmm.exit: ; preds = %31, %20, %28
  %.sink.i6 = phi i32 [ %30, %28 ], [ 0, %20 ], [ 0, %31 ]
  call void @_ZN6XErrnoC1Ei(ptr noundef nonnull align 4 dereferenceable(4) %4, i32 noundef %.sink.i6) #12
  %35 = load i32, ptr %4, align 4
  call void @llvm.lifetime.end.p0(i64 4, ptr nonnull %4)
  call void @llvm.lifetime.end.p0(i64 1, ptr nonnull %5)
  br label %36

36:                                               ; preds = %_ZNK22XPhysicalMemoryBacking23fallocate_compat_pwriteEmm.exit, %18, %_ZNK22XPhysicalMemoryBacking31fallocate_compat_mmap_hugetlbfsEmmb.exit
  %.sroa.0.0 = phi i32 [ %17, %_ZNK22XPhysicalMemoryBacking31fallocate_compat_mmap_hugetlbfsEmmb.exit ], [ %19, %18 ], [ %35, %_ZNK22XPhysicalMemoryBacking23fallocate_compat_pwriteEmm.exit ]
  ret i32 %.sroa.0.0
}